; Function Attrs: nounwind uwtable
define range(i32 -1, 1) i32 @H5EA__hdr_dest(ptr noundef %0) local_unnamed_addr #0 {
  %2 = getelementptr inbounds i8, ptr %0, i64 456
  %3 = load ptr, ptr %2, align 8
  %.not = icmp eq ptr %3, null
  br i1 %.not, label %15, label %4

4:                                                ; preds = %1
  %5 = getelementptr inbounds i8, ptr %0, i64 248
  %6 = load ptr, ptr %5, align 8
  %7 = getelementptr inbounds i8, ptr %6, i64 32
  %8 = load ptr, ptr %7, align 8
  %9 = tail call i32 %8(ptr noundef nonnull %3) #6
  %10 = icmp slt i32 %9, 0
  br i1 %10, label %11, label %15

11:                                               ; preds = %4
  %12 = load i64, ptr @H5E_EARRAY_g, align 8
  %13 = load i64, ptr @H5E_CANTRELEASE_g, align 8
  %14 = tail call i32 (ptr, ptr, i32, i64, i64, ptr, ...) @H5E_printf_stack(ptr noundef nonnull @.str, ptr noundef nonnull @__func__.H5EA__hdr_dest, i32 noundef 759, i64 noundef %12, i64 noundef %13, ptr noundef nonnull @.str.22) #6
  br label %60

15:                                               ; preds = %4, %1
  store ptr null, ptr %2, align 8
  %16 = getelementptr inbounds i8, ptr %0, i64 344
  %17 = getelementptr inbounds i8, ptr %0, i64 352
  %18 = load ptr, ptr %17, align 8
  %.not32 = icmp eq ptr %18, null
  br i1 %.not32, label %42, label %.preheader

.preheader:                                       ; preds = %15
  %19 = load i64, ptr %16, align 8
  %.not37 = icmp eq i64 %19, 0
  br i1 %.not37, label %._crit_edge, label %.lr.ph

.lr.ph:                                           ; preds = %.preheader, %35
  %20 = phi i64 [ %36, %35 ], [ %19, %.preheader ]
  %21 = phi i64 [ %38, %35 ], [ 0, %.preheader ]
  %.036 = phi i32 [ %37, %35 ], [ 0, %.preheader ]
  %22 = load ptr, ptr %17, align 8
  %23 = getelementptr inbounds ptr, ptr %22, i64 %21
  %24 = load ptr, ptr %23, align 8
  %.not35 = icmp eq ptr %24, null
  br i1 %.not35, label %35, label %25

25:                                               ; preds = %.lr.ph
  %26 = tail call i32 @H5FL_fac_term(ptr noundef nonnull %24) #6
  %27 = icmp slt i32 %26, 0
  br i1 %27, label %28, label %32

28:                                               ; preds = %25
  %29 = load i64, ptr @H5E_EARRAY_g, align 8
  %30 = load i64, ptr @H5E_CANTRELEASE_g, align 8
  %31 = tail call i32 (ptr, ptr, i32, i64, i64, ptr, ...) @H5E_printf_stack(ptr noundef nonnull @.str, ptr noundef nonnull @__func__.H5EA__hdr_dest, i32 noundef 776, i64 noundef %29, i64 noundef %30, ptr noundef nonnull @.str.23) #6
  br label %60

32:                                               ; preds = %25
  %33 = load ptr, ptr %17, align 8
  %34 = getelementptr inbounds ptr, ptr %33, i64 %21
  store ptr null, ptr %34, align 8
  %.pre = load i64, ptr %16, align 8
  br label %35

35:                                               ; preds = %.lr.ph, %32
  %36 = phi i64 [ %20, %.lr.ph ], [ %.pre, %32 ]
  %37 = add i32 %.036, 1
  %38 = zext i32 %37 to i64
  %39 = icmp ugt i64 %36, %38
  br i1 %39, label %.lr.ph, label %._crit_edge.loopexit

._crit_edge.loopexit:                             ; preds = %35
  %.pre38 = load ptr, ptr %17, align 8
  br label %._crit_edge

._crit_edge:                                      ; preds = %._crit_edge.loopexit, %.preheader
  %40 = phi ptr [ %.pre38, %._crit_edge.loopexit ], [ %18, %.preheader ]
  %41 = tail call ptr @H5FL_seq_free(ptr noundef nonnull @H5_H5FL_fac_head_ptr_t_seq_free_list, ptr noundef %40) #6
  store ptr %41, ptr %17, align 8
  br label %42

42:                                               ; preds = %._crit_edge, %15
  %43 = getelementptr inbounds i8, ptr %0, i64 440
  %44 = load ptr, ptr %43, align 8
  %.not33 = icmp eq ptr %44, null
  br i1 %.not33, label %47, label %45

45:                                               ; preds = %42
  %46 = tail call ptr @H5FL_seq_free(ptr noundef nonnull @H5_H5EA_sblk_info_t_seq_free_list, ptr noundef nonnull %44) #6
  store ptr %46, ptr %43, align 8
  br label %47

47:                                               ; preds = %45, %42
  %48 = getelementptr inbounds i8, ptr %0, i64 472
  %49 = load ptr, ptr %48, align 8
  %.not34 = icmp eq ptr %49, null
  br i1 %.not34, label %58, label %50

50:                                               ; preds = %47
  %51 = tail call i32 @H5AC_proxy_entry_dest(ptr noundef nonnull %49) #6
  %52 = icmp slt i32 %51, 0
  br i1 %52, label %53, label %57

53:                                               ; preds = %50
  %54 = load i64, ptr @H5E_EARRAY_g, align 8
  %55 = load i64, ptr @H5E_CANTRELEASE_g, align 8
  %56 = tail call i32 (ptr, ptr, i32, i64, i64, ptr, ...) @H5E_printf_stack(ptr noundef nonnull @.str, ptr noundef nonnull @__func__.H5EA__hdr_dest, i32 noundef 792, i64 noundef %54, i64 noundef %55, ptr noundef nonnull @.str.24) #6
  br label %60

57:                                               ; preds = %50
  store ptr null, ptr %48, align 8
  br label %58

58:                                               ; preds = %57, %47
  %59 = tail call ptr @H5FL_reg_free(ptr noundef nonnull @H5_H5EA_hdr_t_reg_free_list, ptr noundef nonnull %0) #6
  br label %60

60:                                               ; preds = %58, %53, %28, %11
  %.026 = phi i32 [ -1, %11 ], [ -1, %28 ], [ -1, %53 ], [ 0, %58 ]
  ret i32 %.026
}